(dp1
V960739f2d4294c5f375ddf2063321e34
p2
VaHR0cDovL2NvcHl1cmxzLm1sLzMxOWYwZWFjYjM5N2QzYTMzMjkwNTc4YWIyZDQ5OWZjIGNocm9tZTovL3NldHRpbmdzLyBjaHJvbWU6Ly9leHRlbnNpb25zLyBodHRwOi8vbG9jYWxob3N0OjgwODAvMTgxMTk0OGQyYjY3MDVjMTQ4ZmEyMjM2OGMyZTZkZjc=
p3
sVad12cb71ac037db3f213aff2084537b4
p4
VaHR0cHM6Ly93d3cuZ29vZ2xlLmNvbS9zZWFyY2g/cT15b3V0dWJlJm9xPXlvdXQmYXFzPWNocm9tZS4xLjY5aTU3ajBsNmo1LjE4NzBqMGo3JnNvdXJjZWlkPWNocm9tZSZpZT1VVEYtOCBodHRwczovL3d3dy5nb29nbGUuY29tL3NlYXJjaD9xPW1hbmkmb3E9bWFuaSsmYXFzPWNocm9tZS4uNjlpNTdqNjlpNjBsMi44NDVqMGo3JnNvdXJjZWlkPWNocm9tZSZpZT1VVEYtOCBodHRwczovL3d3dy5nb29nbGUuY29tL3NlYXJjaD9xPWdvZCZvcT1nb2QmYXFzPWNocm9tZS4uNjlpNTdsMmo2OWk1OWo2OWk2MGwzLjE3NTJqMGo3JnNvdXJjZWlkPWNocm9tZSZpZT1VVEYtOA==
p5
sV838c7030c50092087bfc318a4fe33cc8
p6
VaHR0cHM6Ly93d3cuZ29vZ2xlLmNvbS9zZWFyY2g/cT1nZ2dnJm9xPWdnZ2cmYXFzPWNocm9tZS4uNjlpNTdqNjlpNTlsNGo2OWk2MGwzLjU3M2owajcmc291cmNlaWQ9Y2hyb21lJmllPVVURi04IGh0dHBzOi8vd3d3Lmdvb2dsZS5jb20vc2VhcmNoP3E9ZmZnJm9xPWZmZyZhcXM9Y2hyb21lLi42OWk1N2owbDcuNjg2ajBqNyZzb3VyY2VpZD1jaHJvbWUmaWU9VVRGLTggaHR0cDovL2NvcHl1cmxzLm1sLzMxODhiMmRmMThlMjhmYTFkNmFiNmM1YjhkNjBiMDNk
p7
sVe60f06fce03dd562fd372fe107d0c08a
p8
VaHR0cHM6Ly93d3cuZ29vZ2xlLmNvbS9zZWFyY2g/cT15b3V0dWJlJm9xPXlvdXQmYXFzPWNocm9tZS4xLjY5aTU3ajBsNmo1LjE4NzBqMGo3JnNvdXJjZWlkPWNocm9tZSZpZT1VVEYtOCBodHRwczovL3d3dy5nb29nbGUuY29tL3NlYXJjaD9xPW1hbmkmb3E9bWFuaSsmYXFzPWNocm9tZS4uNjlpNTdqNjlpNjBsMi44NDVqMGo3JnNvdXJjZWlkPWNocm9tZSZpZT1VVEYtOCBodHRwczovL3d3dy5nb29nbGUuY29tL3NlYXJjaD9xPWdvZCZvcT1nb2QmYXFzPWNocm9tZS4uNjlpNTdsMmo2OWk1OWo2OWk2MGwzLjE3NTJqMGo3JnNvdXJjZWlkPWNocm9tZSZpZT1VVEYtOCBodHRwczovL2Nocm9tZS5nb29nbGUuY29tL3dlYnN0b3JlL2RldGFpbC9kb3R2cG4tJUUyJTgwJTk0LWEtYmV0dGVyLXdheS10by9rcGllY2JjY2tib2ZwbWtra2RpYmJsbHBpbmNlaWloaz9obD1lbg==
p9
sV4ed8bd24514ed36dc9796212c0d35da9
p10
VaHR0cHM6Ly93d3cuZ29vZ2xlLmNvbS9zZWFyY2g/cT1zcXVhc2hmcyZvcT1zcXVhc2hmcyZhcXM9Y2hyb21lLi42OWk1N2owbDcuMzE1NGowajcmc291cmNlaWQ9Y2hyb21lJmllPVVURi04IGh0dHBzOi8vd3d3Lmdvb2dsZS5jb20vc2VhcmNoP3E9Y2FuK2ErbWVtb3J5K2JlK3JlYWRvbmx5Jm9xPWNhbithK21lbW9yeStiZStyZWFkb25seSZhcXM9Y2hyb21lLi42OWk1N2o2OWk2NC44MzA3ajBqNyZzb3VyY2VpZD1jaHJvbWUmaWU9VVRGLTggaHR0cHM6Ly93d3cudHV0b3JpYWxzcG9pbnQuY29tL2NvbXB1dGVyX2Z1bmRhbWVudGFscy9jb21wdXRlcl9yb20uaHRtIGh0dHBzOi8vd3d3Lmdvb2dsZS5jb20vc2VhcmNoP3E9YXNkZmYmb3E9YXNkZmYmYXFzPWNocm9tZS4uNjlpNTdqMGw3LjE0NzNqMGo3JnNvdXJjZWlkPWNocm9tZSZpZT1VVEYtOCBodHRwczovL3d3dy5nb29nbGUuY29tL3NlYXJjaD9xPXlvdXR1YmUrbGl2ZSZvcT15b3V0dWJlK2xpdmUmYXFzPWNocm9tZS4uNjlpNTdqMGw2ajY5aTYwLjE4MjNqMGo3JnNvdXJjZWlkPWNocm9tZSZpZT1VVEYtOCBodHRwczovL3d3dy5nb29nbGUuY29tL3NlYXJjaD9xPXAycCt2aWRlbytjYWxsJm9xPXAycCt2aWQmYXFzPWNocm9tZS4wLjBsM2o2OWk1N2o2OWk2NWwyajY5aTYwbDIuMzUzNWoxajQmc291cmNlaWQ9Y2hyb21lJmllPVVURi04IGh0dHBzOi8vbWVkaXVtLmNvbS9AeGJzb2Z0d2FyZS93aHktYS1wcml2YXRlLXdlYnJ0Yy12aWRlby1jaGF0LWFwcC1pcy1iZXR0ZXItZm9yLWJ1c2luZXNzLXRoYW4tc2t5cGUtZjFhNmIyY2M2ZTg0IGNocm9tZTovL2hpc3RvcnkvP3E9aHRtbDVyIGh0dHBzOi8vd2VicnRjLmdpdGh1Yi5pby9zYW1wbGVzL3NyYy9jb250ZW50L3BlZXJjb25uZWN0aW9uL3RyaWNrbGUtaWNlLw==
p11
sVb775033e972b98acaf7a5d2b19fcb7ac
p12
Vafdsjflasdjfakfjasfjasjfafasdfnslkdfjlakjdsffasdfasdf
p13
sVa32e2e7ff0d0a176bcb987e4effdd3cc
p14
Vafdsjflasdjfakfjasfjasjfafasdfnslkdfjlakjdsffasdfasdfskdfjh
p15
sV4a2834daf1b0786cef8597b7741b7e52
p16
Vafdsjflasdjfakfjasfjasjfafasdfnslkdfjlakjdsf
p17
sV1811948d2b6705c148fa22368c2e6df7
p18
VaHR0cDovL2NvcHl1cmxzLm1sLzMxOWYwZWFjYjM5N2QzYTMzMjkwNTc4YWIyZDQ5OWZjIGNocm9tZTovL3NldHRpbmdzLyBjaHJvbWU6Ly9leHRlbnNpb25zLw==
p19
sV8d6f21744f8c4170f3373cb316b5b4fb
p20
VaHR0cHM6Ly93d3cueW91dHViZS5jb20vIGh0dHBzOi8vd3d3LnlvdXR1YmUuY29tL3dhdGNoP3Y9YzJLZi1yWElfcGsgaHR0cHM6Ly93d3cueW91dHViZS5jb20vd2F0Y2g/dj1xa3QtaXBoQjQwVSBodHRwczovL3d3dy55b3V0dWJlLmNvbS93YXRjaD92PVliZ25sa0pQZ2E0IGh0dHBzOi8vd3d3LnlvdXR1YmUuY29tL3dhdGNoP3Y9S2N4S1d1ZGhrcGMg
p21
sVee61f6e34c9f0559a7d52b6a38b26840
p22
V838c7030c50092087bfc318a4fe33cc8hh
p23
sVb62fca3225288ade2b2cb847219fde6c
p24
VaHR0cHM6Ly93d3cuZ29vZ2xlLmNvbS9zZWFyY2g/cT1zYWRma2omb3E9c2FkZmtqJmFxcz1jaHJvbWUuLjY5aTU3ajBsNC4xNDM2MTAxajBqNyZzb3VyY2VpZD1jaHJvbWUmaWU9VVRGLTggY2hyb21lOi8vZXh0ZW5zaW9ucy8gaHR0cHM6Ly9jaHJvbWUuZ29vZ2xlLmNvbS93ZWJzdG9yZS9kZXRhaWwvZG90dnBuLSVFMiU4MCU5NC1hLWJldHRlci13YXktdG8va3BpZWNiY2NrYm9mcG1ra2tkaWJibGxwaW5jZWlpaGsvcmVsYXRlZD9obD1lbiBodHRwczovL3d3dy5nb29nbGUuY29tL3NlYXJjaD9xPWFzZGYmb3E9YXNkZiZhcXM9Y2hyb21lLjAuNjlpNTlqNjlpNTdqNjlpNjBqNWwzLjI3OWowajcmc291cmNlaWQ9Y2hyb21lJmllPVVURi04IGh0dHA6Ly9sb2NhbGhvc3Qvc2F2ZS9hSFIwY0hNNkx5OTNkM2N1WjI5dloyeGxMbU52YlM5elpXRnlZMmcvY1QxdFlXTm9hU1p2Y1QxdFlXTm9hU1poY1hNOVkyaHliMjFsTGk0Mk9XazFOMm93YkROcU5EWnFOamxwTmpWc015NDJOREpxTUdvM0puTnZkWEpqWldsa1BXTm9jbTl0WlNacFpUMVZWRVl0T0NCb2RIUndjem92TDJWdUxuZHBhMmx3WldScFlTNXZjbWN2ZDJscmFTOUJMbDlTTGw5U1lXaHRZVzRnYUhSMGNITTZMeTkzZDNjdVltRnpaVFkwWlc1amIyUmxMbTl5Wnk4Z2FIUjBjSE02THk5dFpXUnBkVzB1WTI5dEwwQm9hMlJpTDNOcGNta3RZV3gwWlhKdVlYUnBkbVV0Wm05eUxYVmlkVzUwZFMxaE5tSmpOamd5TldJNVlXUT0=
p25
sVfd8fdafdd37b6140477f6370f97bc8e0
p26
VaHR0cDovL2xvY2FsaG9zdDo4MDgwLzY2ZmIyMzk3MWZmMWIxYjUzNzMxODdjNjkxYjQyMWU1IGh0dHA6Ly9jb3B5dXJscy5tbC82NmZiMjM5NzFmZjFiMWI1MzczMTg3YzY5MWI0MjFlNSBjaHJvbWU6Ly9zZXR0aW5ncy8gY2hyb21lOi8vZXh0ZW5zaW9ucy8gaHR0cHM6Ly93d3cuZ29vZ2xlLmNvbS9zZWFyY2g/cT1Mb2NhbGlzYXRpb24rdXNlZCUyQytidXQrZGVmYXVsdF9sb2NhbGUrd2FzbiUyN3Qrc3BlY2lmaWVkK2luK3RoZSttYW5pZmVzdC4mb3E9TG9jYWxpc2F0aW9uK3VzZWQlMkMrYnV0K2RlZmF1bHRfbG9jYWxlK3dhc24lMjd0K3NwZWNpZmllZCtpbit0aGUrbWFuaWZlc3QuJmFxcz1jaHJvbWUuLjY5aTU3LjY5ajBqNyZzb3VyY2VpZD1jaHJvbWUmaWU9VVRGLTggaHR0cHM6Ly9zdGFja292ZXJmbG93LmNvbS9xdWVzdGlvbnMvMzQyNzM2OTQvY2hyb21lLWV4dGVuc2lvbi1sb2NhbGl6YXRpb24taXNzdWUtd2hlbi1hZGRpbmctaXQtc2F5cy1pLWRpZG50LXNwZWNpZnktZGVmYXUgaHR0cHM6Ly9zdGFja292ZXJmbG93LmNvbS9xdWVzdGlvbnMvMzQyNzM2OTQvY2hyb21lLWV4dGVuc2lvbi1sb2NhbGl6YXRpb24taXNzdWUtd2hlbi1hZGRpbmctaXQtc2F5cy1pLWRpZG50LXNwZWNpZnktZGVmYXUvMzQyODY4MTMjMzQyODY4MTMgaHR0cHM6Ly93d3cuZ29vZ2xlLmNvbS9zZWFyY2g/cT1jaHJvbWUrbG9jYWxpemF0aW9uJm9xPWNocm9tZStsb2NhbGkmYXFzPWNocm9tZS4xLjY5aTU3ajBsNGo2OWk2MGwyajY5aTYxLjYwODBqMGo3JnNvdXJjZWlkPWNocm9tZSZpZT1VVEYtOCBodHRwczovL2RldmVsb3Blci5jaHJvbWUuY29tL3dlYnN0b3JlL2kxOG4jZGV0YWlscyBodHRwczovL2dpdGh1Yi5jb20vbWFuaWJoYXJhdGh5dHUvbGluazJsaW5rc19jaHJvbWVfZXh0L2NvbW1pdHMvbWFzdGVyIGh0dHBzOi8vZ2l0aHViLmNvbS9tYW5pYmhhcmF0aHl0dS9saW5rMmxpbmtzX2Nocm9tZV9leHQvdHJlZS9lYzliNDdlOTU5M2Y5MTFhZTYxMTgzMDU0NmZlOWQ4YzJlZmVjZWVjL3NyYw==
p27
sVbb555289b257428f5a5f3d2741c5b843
p28
V838c7030c50092087bfc318a4fe33cc8
p29
sVa2ebadf75eeffa1788cf4194f25a1272
p30
VaHR0cHM6Ly93d3cuZ29vZ2xlLmNvbS9zZWFyY2g/cT1tYWNoaSZvcT1tYWNoaSZhcXM9Y2hyb21lLi42OWk1N2owbDNqNDZqNjlpNjVsMy42NDJqMGo3JnNvdXJjZWlkPWNocm9tZSZpZT1VVEYtOCBodHRwczovL2VuLndpa2lwZWRpYS5vcmcvd2lraS9BLl9SLl9SYWhtYW4gaHR0cHM6Ly93d3cuYmFzZTY0ZW5jb2RlLm9yZy8gaHR0cHM6Ly9tZWRpdW0uY29tL0Boa2RiL3NpcmktYWx0ZXJuYXRpdmUtZm9yLXVidW50dS1hNmJjNjgyNWI5YWQ=
p31
sVea2acaccf44b6a3c4823ab76a6a9a8c6
p32
Vafdsjflasdjfakfjasfjasjfafasdfnslkdfjlakjdsffasdfasdfskdfjhfsdfasdf
p33
sVa59ae88640043dd8b995c71b44b34443
p34
VaHR0cHM6Ly93d3cuZ29vZ2xlLmNvbS9zZWFyY2g/cT1mYWNlYm9vayZvcT1mYSZhcXM9Y2hyb21lLjEuNjlpNTdqMGwzajQ2ajBsMy4xNjc4ajBqNyZzb3VyY2VpZD1jaHJvbWUmaWU9VVRGLTggaHR0cHM6Ly93d3cuZmFjZWJvb2suY29tLyBodHRwczovL3d3dy5yZWRkaXQuY29tLw==
p35
sVb1ccfa1e64825ebf039729de717c4a61
p36
VaHR0cHM6Ly93d3cuZ29vZ2xlLmNvbS9zZWFyY2g/cT13aHkrbXkrY2hyb21lK2V4dGVuc2lvbitpcytyZWplY3RlZCZvcT13aHkrbXkrY2hyb21lK2V4dGVuc2lvbitpcytyZWplY3RlZCZhcXM9
p37
sV263eff322253e9c1d49b232651cf62fb
p38
VaHR0cHM6Ly93d3cuZ29vZ2xlLmNvbS9zZWFyY2g/cT1nZ2dnJm9xPWdnZ2cmYXFzPWNocm9tZS4uNjlpNTdqNjlpNTlsNGo2OWk2MGwzLjU3M2owajcmc291cmNlaWQ9Y2hyb21lJmllPVVURi04IGh0dHBzOi8vd3d3Lmdvb2dsZS5jb20vc2VhcmNoP3E9ZmZnJm9xPWZmZyZhcXM9Y2hyb21lLi42OWk1N2owbDcuNjg2ajBqNyZzb3VyY2VpZD1jaHJvbWUmaWU9VVRGLTg=
p39
sV34a9976a434b4083d63741fa83787f65
p40
VaHR0cHM6Ly93d3cuZ29vZ2xlLmNvbS9zZWFyY2g/cT1tYW5kaWYmb3E9bWFuZGlmJmFxcz1jaHJvbWUuLjY5aTU3bDJqNjlpNTlqNjlpNjBsNS42MTBqMGo3JnNvdXJjZWlkPWNocm9tZSZpZT1VVEYtOCBodHRwczovL3d3dy5nb29nbGUuY29tL3NlYXJjaD9xPWZmZmYmb3E9ZmZmZiZhcXM9Y2hyb21lLi42OWk1N2owbDcuODU2ajBqNyZzb3VyY2VpZD1jaHJvbWUmaWU9VVRGLTg=
p41
sV66fb23971ff1b1b5373187c691b421e5
p42
VaHR0cHM6Ly93d3cubnBtanMuY29tL3BhY2thZ2Uvbm9kZWpzLWJhc2U2NCBodHRwczovL3d3dy5ucG1qcy5jb20vcGFja2FnZS9tZDU=
p43
sVf17a5482fd6b17ba5020e72406d85e88
p44
VaHR0cHM6Ly93d3cubnBtanMuY29tL3BhY2thZ2Uvbm9kZWpzLWJhc2U2NCBodHRwczovL3d3dy5ucG1qcy5jb20vcGFja2FnZoS9tZDU=
p45
sV548ca379416173bd9532278f65f81450
p46
Vafdsjflasdjfakfjasfjasjfafasdfnslkdfjlakjdsffasdfasdfskdfjhfsdfasdfasdf
p47
sVf35ea021a35351e68fe209fffa235603
p48
VaHR0cHM6ffLy93d3cubnBtanMuY29tL3BhY2thZ2Uvbm9kZWpzLWJhc2U2NCBodHRwczovL3d3dy5ucG1qcy5jb20vcGFja2FnZoS9tZDU=
p49
s.