(dp1
V66fb23971ff1b1b5373187c691b421e5
p2
VaHR0cHM6Ly93d3cubnBtanMuY29tL3BhY2thZ2Uvbm9kZWpzLWJhc2U2NCBodHRwczovL3d3dy5ucG1qcy5jb20vcGFja2FnZS9tZDU=
p3
sVad12cb71ac037db3f213aff2084537b4
p4
VaHR0cHM6Ly93d3cuZ29vZ2xlLmNvbS9zZWFyY2g/cT15b3V0dWJlJm9xPXlvdXQmYXFzPWNocm9tZS4xLjY5aTU3ajBsNmo1LjE4NzBqMGo3JnNvdXJjZWlkPWNocm9tZSZpZT1VVEYtOCBodHRwczovL3d3dy5nb29nbGUuY29tL3NlYXJjaD9xPW1hbmkmb3E9bWFuaSsmYXFzPWNocm9tZS4uNjlpNTdqNjlpNjBsMi44NDVqMGo3JnNvdXJjZWlkPWNocm9tZSZpZT1VVEYtOCBodHRwczovL3d3dy5nb29nbGUuY29tL3NlYXJjaD9xPWdvZCZvcT1nb2QmYXFzPWNocm9tZS4uNjlpNTdsMmo2OWk1OWo2OWk2MGwzLjE3NTJqMGo3JnNvdXJjZWlkPWNocm9tZSZpZT1VVEYtOA==
p5
sV8d6f21744f8c4170f3373cb316b5b4fb
p6
VaHR0cHM6Ly93d3cueW91dHViZS5jb20vIGh0dHBzOi8vd3d3LnlvdXR1YmUuY29tL3dhdGNoP3Y9YzJLZi1yWElfcGsgaHR0cHM6Ly93d3cueW91dHViZS5jb20vd2F0Y2g/dj1xa3QtaXBoQjQwVSBodHRwczovL3d3dy55b3V0dWJlLmNvbS93YXRjaD92PVliZ25sa0pQZ2E0IGh0dHBzOi8vd3d3LnlvdXR1YmUuY29tL3dhdGNoP3Y9S2N4S1d1ZGhrcGMg
p7
sVb62fca3225288ade2b2cb847219fde6c
p8
VaHR0cHM6Ly93d3cuZ29vZ2xlLmNvbS9zZWFyY2g/cT1zYWRma2omb3E9c2FkZmtqJmFxcz1jaHJvbWUuLjY5aTU3ajBsNC4xNDM2MTAxajBqNyZzb3VyY2VpZD1jaHJvbWUmaWU9VVRGLTggY2hyb21lOi8vZXh0ZW5zaW9ucy8gaHR0cHM6Ly9jaHJvbWUuZ29vZ2xlLmNvbS93ZWJzdG9yZS9kZXRhaWwvZG90dnBuLSVFMiU4MCU5NC1hLWJldHRlci13YXktdG8va3BpZWNiY2NrYm9mcG1ra2tkaWJibGxwaW5jZWlpaGsvcmVsYXRlZD9obD1lbiBodHRwczovL3d3dy5nb29nbGUuY29tL3NlYXJjaD9xPWFzZGYmb3E9YXNkZiZhcXM9Y2hyb21lLjAuNjlpNTlqNjlpNTdqNjlpNjBqNWwzLjI3OWowajcmc291cmNlaWQ9Y2hyb21lJmllPVVURi04IGh0dHA6Ly9sb2NhbGhvc3Qvc2F2ZS9hSFIwY0hNNkx5OTNkM2N1WjI5dloyeGxMbU52YlM5elpXRnlZMmcvY1QxdFlXTm9hU1p2Y1QxdFlXTm9hU1poY1hNOVkyaHliMjFsTGk0Mk9XazFOMm93YkROcU5EWnFOamxwTmpWc015NDJOREpxTUdvM0puTnZkWEpqWldsa1BXTm9jbTl0WlNacFpUMVZWRVl0T0NCb2RIUndjem92TDJWdUxuZHBhMmx3WldScFlTNXZjbWN2ZDJscmFTOUJMbDlTTGw5U1lXaHRZVzRnYUhSMGNITTZMeTkzZDNjdVltRnpaVFkwWlc1amIyUmxMbTl5Wnk4Z2FIUjBjSE02THk5dFpXUnBkVzB1WTI5dEwwQm9hMlJpTDNOcGNta3RZV3gwWlhKdVlYUnBkbVV0Wm05eUxYVmlkVzUwZFMxaE5tSmpOamd5TldJNVlXUT0=
p9
sVe60f06fce03dd562fd372fe107d0c08a
p10
VaHR0cHM6Ly93d3cuZ29vZ2xlLmNvbS9zZWFyY2g/cT15b3V0dWJlJm9xPXlvdXQmYXFzPWNocm9tZS4xLjY5aTU3ajBsNmo1LjE4NzBqMGo3JnNvdXJjZWlkPWNocm9tZSZpZT1VVEYtOCBodHRwczovL3d3dy5nb29nbGUuY29tL3NlYXJjaD9xPW1hbmkmb3E9bWFuaSsmYXFzPWNocm9tZS4uNjlpNTdqNjlpNjBsMi44NDVqMGo3JnNvdXJjZWlkPWNocm9tZSZpZT1VVEYtOCBodHRwczovL3d3dy5nb29nbGUuY29tL3NlYXJjaD9xPWdvZCZvcT1nb2QmYXFzPWNocm9tZS4uNjlpNTdsMmo2OWk1OWo2OWk2MGwzLjE3NTJqMGo3JnNvdXJjZWlkPWNocm9tZSZpZT1VVEYtOCBodHRwczovL2Nocm9tZS5nb29nbGUuY29tL3dlYnN0b3JlL2RldGFpbC9kb3R2cG4tJUUyJTgwJTk0LWEtYmV0dGVyLXdheS10by9rcGllY2JjY2tib2ZwbWtra2RpYmJsbHBpbmNlaWloaz9obD1lbg==
p11
sVa59ae88640043dd8b995c71b44b34443
p12
VaHR0cHM6Ly93d3cuZ29vZ2xlLmNvbS9zZWFyY2g/cT1mYWNlYm9vayZvcT1mYSZhcXM9Y2hyb21lLjEuNjlpNTdqMGwzajQ2ajBsMy4xNjc4ajBqNyZzb3VyY2VpZD1jaHJvbWUmaWU9VVRGLTggaHR0cHM6Ly93d3cuZmFjZWJvb2suY29tLyBodHRwczovL3d3dy5yZWRkaXQuY29tLw==
p13
sVa2ebadf75eeffa1788cf4194f25a1272
p14
VaHR0cHM6Ly93d3cuZ29vZ2xlLmNvbS9zZWFyY2g/cT1tYWNoaSZvcT1tYWNoaSZhcXM9Y2hyb21lLi42OWk1N2owbDNqNDZqNjlpNjVsMy42NDJqMGo3JnNvdXJjZWlkPWNocm9tZSZpZT1VVEYtOCBodHRwczovL2VuLndpa2lwZWRpYS5vcmcvd2lraS9BLl9SLl9SYWhtYW4gaHR0cHM6Ly93d3cuYmFzZTY0ZW5jb2RlLm9yZy8gaHR0cHM6Ly9tZWRpdW0uY29tL0Boa2RiL3NpcmktYWx0ZXJuYXRpdmUtZm9yLXVidW50dS1hNmJjNjgyNWI5YWQ=
p15
s.