(dp1
V66fb23971ff1b1b5373187c691b421e5
p2
VaHR0cHM6Ly93d3cubnBtanMuY29tL3BhY2thZ2Uvbm9kZWpzLWJhc2U2NCBodHRwczovL3d3dy5ucG1qcy5jb20vcGFja2FnZS9tZDU=
p3
sV8d6f21744f8c4170f3373cb316b5b4fb
p4
VaHR0cHM6Ly93d3cueW91dHViZS5jb20vIGh0dHBzOi8vd3d3LnlvdXR1YmUuY29tL3dhdGNoP3Y9YzJLZi1yWElfcGsgaHR0cHM6Ly93d3cueW91dHViZS5jb20vd2F0Y2g/dj1xa3QtaXBoQjQwVSBodHRwczovL3d3dy55b3V0dWJlLmNvbS93YXRjaD92PVliZ25sa0pQZ2E0IGh0dHBzOi8vd3d3LnlvdXR1YmUuY29tL3dhdGNoP3Y9S2N4S1d1ZGhrcGMg
p5
sVa2ebadf75eeffa1788cf4194f25a1272
p6
VaHR0cHM6Ly93d3cuZ29vZ2xlLmNvbS9zZWFyY2g/cT1tYWNoaSZvcT1tYWNoaSZhcXM9Y2hyb21lLi42OWk1N2owbDNqNDZqNjlpNjVsMy42NDJqMGo3JnNvdXJjZWlkPWNocm9tZSZpZT1VVEYtOCBodHRwczovL2VuLndpa2lwZWRpYS5vcmcvd2lraS9BLl9SLl9SYWhtYW4gaHR0cHM6Ly93d3cuYmFzZTY0ZW5jb2RlLm9yZy8gaHR0cHM6Ly9tZWRpdW0uY29tL0Boa2RiL3NpcmktYWx0ZXJuYXRpdmUtZm9yLXVidW50dS1hNmJjNjgyNWI5YWQ=
p7
s.